; ModuleID = 'source-C-CXX/27/1740.c'
source_filename = "source-C-CXX/27/1740.c"
target datalayout = "e-m:e-p270:32:32-p271:32:32-p272:64:64-i64:64-f80:128-n8:16:32:64-S128"
target triple = "x86_64-pc-linux-gnu"

@.str = private unnamed_addr constant [4 x i8] c"%d,\00", align 1
@.str.1 = private unnamed_addr constant [3 x i8] c"%d\00", align 1

; Function Attrs: nounwind sspstrong uwtable
define dso_local i32 @main() local_unnamed_addr #0 {
  %1 = alloca [10000 x i8], align 16
  %2 = alloca [200 x [50 x i8]], align 16
  %3 = getelementptr inbounds [10000 x i8], [10000 x i8]* %1, i64 0, i64 0
  call void @llvm.lifetime.start.p0i8(i64 10000, i8* nonnull %3) #5
  %4 = getelementptr inbounds [200 x [50 x i8]], [200 x [50 x i8]]* %2, i64 0, i64 0, i64 0
  call void @llvm.lifetime.start.p0i8(i64 10000, i8* nonnull %4) #5
  %5 = call i32 (i8*, ...) bitcast (i32 (...)* @gets to i32 (i8*, ...)*)(i8* nonnull %3) #5
  %6 = call i64 @strlen(i8* noundef nonnull %3) #6
  %7 = trunc i64 %6 to i32
  %8 = icmp sgt i32 %7, 0
  br i1 %8, label %9, label %49

9:                                                ; preds = %0
  %10 = and i64 %6, 4294967295
  br label %15

11:                                               ; preds = %36
  %12 = icmp sgt i32 %38, 0
  br i1 %12, label %13, label %49

13:                                               ; preds = %11
  %14 = zext i32 %38 to i64
  br label %41

15:                                               ; preds = %9, %36
  %16 = phi i64 [ 0, %9 ], [ %39, %36 ]
  %17 = phi i32 [ 0, %9 ], [ %38, %36 ]
  %18 = phi i32 [ 0, %9 ], [ %37, %36 ]
  %19 = getelementptr inbounds [10000 x i8], [10000 x i8]* %1, i64 0, i64 %16
  %20 = load i8, i8* %19, align 1, !tbaa !5
  %21 = icmp eq i8 %20, 32
  br i1 %21, label %27, label %22

22:                                               ; preds = %15
  %23 = sext i32 %17 to i64
  %24 = sext i32 %18 to i64
  %25 = getelementptr inbounds [200 x [50 x i8]], [200 x [50 x i8]]* %2, i64 0, i64 %23, i64 %24
  store i8 %20, i8* %25, align 1, !tbaa !5
  %26 = add nsw i32 %18, 1
  br label %36

27:                                               ; preds = %15
  %28 = add nsw i64 %16, -1
  %29 = getelementptr inbounds [10000 x i8], [10000 x i8]* %1, i64 0, i64 %28
  %30 = load i8, i8* %29, align 1, !tbaa !5
  %31 = icmp eq i8 %30, 32
  %32 = select i1 %31, i32 %18, i32 0
  %33 = xor i1 %31, true
  %34 = zext i1 %33 to i32
  %35 = add nsw i32 %17, %34
  br label %36

36:                                               ; preds = %27, %22
  %37 = phi i32 [ %26, %22 ], [ %32, %27 ]
  %38 = phi i32 [ %17, %22 ], [ %35, %27 ]
  %39 = add nuw nsw i64 %16, 1
  %40 = icmp eq i64 %39, %10
  br i1 %40, label %11, label %15, !llvm.loop !8

41:                                               ; preds = %13, %41
  %42 = phi i64 [ 0, %13 ], [ %47, %41 ]
  %43 = getelementptr inbounds [200 x [50 x i8]], [200 x [50 x i8]]* %2, i64 0, i64 %42, i64 0
  %44 = call i64 @strlen(i8* noundef nonnull %43) #6
  %45 = trunc i64 %44 to i32
  %46 = call i32 (i8*, ...) @printf(i8* nonnull dereferenceable(1) getelementptr inbounds ([4 x i8], [4 x i8]* @.str, i64 0, i64 0), i32 %45)
  %47 = add nuw nsw i64 %42, 1
  %48 = icmp eq i64 %47, %14
  br i1 %48, label %49, label %41, !llvm.loop !10

49:                                               ; preds = %41, %0, %11
  %50 = phi i32 [ %38, %11 ], [ 0, %0 ], [ %38, %41 ]
  %51 = sext i32 %50 to i64
  %52 = getelementptr inbounds [200 x [50 x i8]], [200 x [50 x i8]]* %2, i64 0, i64 %51, i64 0
  %53 = call i64 @strlen(i8* noundef nonnull %52) #6
  %54 = trunc i64 %53 to i32
  %55 = call i32 (i8*, ...) @printf(i8* nonnull dereferenceable(1) getelementptr inbounds ([3 x i8], [3 x i8]* @.str.1, i64 0, i64 0), i32 %54)
  call void @llvm.lifetime.end.p0i8(i64 10000, i8* nonnull %4) #5
  call void @llvm.lifetime.end.p0i8(i64 10000, i8* nonnull %3) #5
  ret i32 0
}

; Function Attrs: argmemonly mustprogress nofree nosync nounwind willreturn
declare void @llvm.lifetime.start.p0i8(i64 immarg, i8* nocapture) #1

declare i32 @gets(...) local_unnamed_addr #2

; Function Attrs: argmemonly mustprogress nofree nounwind readonly willreturn
declare i64 @strlen(i8* nocapture) local_unnamed_addr #3

; Function Attrs: nofree nounwind
declare noundef i32 @printf(i8* nocapture noundef readonly, ...) local_unnamed_addr #4

; Function Attrs: argmemonly mustprogress nofree nosync nounwind willreturn
declare void @llvm.lifetime.end.p0i8(i64 immarg, i8* nocapture) #1


!llvm.module.flags = !{!0, !1, !2, !3}
!llvm.ident = !{!4}

!0 = !{i32 1, !"wchar_size", i32 4}
!1 = !{i32 7, !"PIC Level", i32 2}
!2 = !{i32 7, !"PIE Level", i32 2}
!3 = !{i32 7, !"uwtable", i32 1}
!4 = !{!"clang version 13.0.0"}
!5 = !{!6, !6, i64 0}
!6 = !{!"omnipotent char", !7, i64 0}
!7 = !{!"Simple C/C++ TBAA"}
!8 = distinct !{!8, !9}
!9 = !{!"llvm.loop.mustprogress"}
!10 = distinct !{!10, !9}
